; Function Attrs: mustprogress uwtable
define void @_ZN7jsonnet8internal12CompilerPass5visitEPNS0_19ObjectComprehensionE(ptr noundef nonnull align 8 dereferenceable(16) %0, ptr noundef %1) unnamed_addr #4 align 2 {
  %3 = getelementptr inbounds nuw i8, ptr %1, i64 128
  %4 = load ptr, ptr %0, align 8, !tbaa !17
  %5 = getelementptr inbounds nuw i8, ptr %4, i64 40
  %6 = load ptr, ptr %5, align 8
  tail call void %6(ptr noundef nonnull align 8 dereferenceable(16) %0, ptr noundef nonnull align 8 dereferenceable(24) %3)
  %7 = getelementptr inbounds nuw i8, ptr %1, i64 160
  %8 = load ptr, ptr %0, align 8, !tbaa !17
  %9 = getelementptr inbounds nuw i8, ptr %8, i64 16
  %10 = load ptr, ptr %9, align 8
  tail call void %10(ptr noundef nonnull align 8 dereferenceable(16) %0, ptr noundef nonnull align 8 dereferenceable(24) %7)
  %11 = getelementptr inbounds nuw i8, ptr %1, i64 184
  %12 = load ptr, ptr %0, align 8, !tbaa !17
  %13 = getelementptr inbounds nuw i8, ptr %12, i64 8
  %14 = load ptr, ptr %13, align 8
  tail call void %14(ptr noundef nonnull align 8 dereferenceable(16) %0, ptr noundef nonnull align 8 dereferenceable(24) %11)
  ret void
}